target datalayout = "e-m:e-p270:32:32-p271:32:32-p272:64:64-i64:64-i128:128-f80:128-n8:16:32:64-S128"
target triple = "x86_64-pc-linux-gnu"

%struct.X509_VERIFY_PARAM_st = type { ptr, i64, i32, i64, i32, i32, i32, i32, ptr, ptr, i32, ptr, ptr, i64, ptr, i64 }

; Function Attrs: inlinehint nounwind uwtable
define internal ptr @ossl_check_ASN1_OBJECT_type(ptr noundef %0) #3 {
  %2 = alloca ptr, align 8
  store ptr %0, ptr %2, align 8, !tbaa !35
  %3 = load ptr, ptr %2, align 8, !tbaa !35
  ret ptr %3
}

; Function Attrs: inlinehint nounwind uwtable
define internal ptr @ossl_check_ASN1_OBJECT_sk_type(ptr noundef %0) #3 {
  %2 = alloca ptr, align 8
  store ptr %0, ptr %2, align 8, !tbaa !22
  %3 = load ptr, ptr %2, align 8, !tbaa !22
  ret ptr %3
}

; Function Attrs: nounwind uwtable
define i32 @X509_VERIFY_PARAM_add0_policy(ptr noundef %0, ptr noundef %1) #0 {
  %3 = alloca i32, align 4
  %4 = alloca ptr, align 8
  %5 = alloca ptr, align 8
  store ptr %0, ptr %4, align 8, !tbaa !3
  store ptr %1, ptr %5, align 8, !tbaa !35
  %6 = load ptr, ptr %4, align 8, !tbaa !3
  %7 = getelementptr inbounds nuw %struct.X509_VERIFY_PARAM_st, ptr %6, i32 0, i32 8
  %8 = load ptr, ptr %7, align 8, !tbaa !17
  %9 = icmp eq ptr %8, null
  br i1 %9, label %10, label %20

10:                                               ; preds = %2
  %11 = call ptr @OPENSSL_sk_new_null()
  %12 = load ptr, ptr %4, align 8, !tbaa !3
  %13 = getelementptr inbounds nuw %struct.X509_VERIFY_PARAM_st, ptr %12, i32 0, i32 8
  store ptr %11, ptr %13, align 8, !tbaa !17
  %14 = load ptr, ptr %4, align 8, !tbaa !3
  %15 = getelementptr inbounds nuw %struct.X509_VERIFY_PARAM_st, ptr %14, i32 0, i32 8
  %16 = load ptr, ptr %15, align 8, !tbaa !17
  %17 = icmp eq ptr %16, null
  br i1 %17, label %18, label %19

18:                                               ; preds = %10
  store i32 0, ptr %3, align 4
  br label %31

19:                                               ; preds = %10
  br label %20

20:                                               ; preds = %19, %2
  %21 = load ptr, ptr %4, align 8, !tbaa !3
  %22 = getelementptr inbounds nuw %struct.X509_VERIFY_PARAM_st, ptr %21, i32 0, i32 8
  %23 = load ptr, ptr %22, align 8, !tbaa !17
  %24 = call ptr @ossl_check_ASN1_OBJECT_sk_type(ptr noundef %23)
  %25 = load ptr, ptr %5, align 8, !tbaa !35
  %26 = call ptr @ossl_check_ASN1_OBJECT_type(ptr noundef %25)
  %27 = call i32 @OPENSSL_sk_push(ptr noundef %24, ptr noundef %26)
  %28 = icmp sle i32 %27, 0
  br i1 %28, label %29, label %30

29:                                               ; preds = %20
  store i32 0, ptr %3, align 4
  br label %31

30:                                               ; preds = %20
  store i32 1, ptr %3, align 4
  br label %31

31:                                               ; preds = %30, %29, %18
  %32 = load i32, ptr %3, align 4
  ret i32 %32
}