; Function Attrs: nounwind uwtable
define range(i32 0, 2) i32 @X509_VERIFY_PARAM_add0_policy(ptr noundef captures(none) %0, ptr noundef %1) local_unnamed_addr #0 {
  %3 = getelementptr inbounds nuw i8, ptr %0, i64 48
  %4 = load ptr, ptr %3, align 8, !tbaa !15
  %5 = icmp eq ptr %4, null
  br i1 %5, label %6, label %9

6:                                                ; preds = %2
  %7 = tail call ptr @OPENSSL_sk_new_null() #9
  store ptr %7, ptr %3, align 8, !tbaa !15
  %8 = icmp eq ptr %7, null
  br i1 %8, label %13, label %9

9:                                                ; preds = %6, %2
  %10 = phi ptr [ %7, %6 ], [ %4, %2 ]
  %11 = tail call i32 @OPENSSL_sk_push(ptr noundef nonnull %10, ptr noundef %1) #9
  %12 = icmp sgt i32 %11, 0
  %. = zext i1 %12 to i32
  br label %13

13:                                               ; preds = %9, %6
  %.0 = phi i32 [ 0, %6 ], [ %., %9 ]
  ret i32 %.0
}